target datalayout = "e-m:e-p270:32:32-p271:32:32-p272:64:64-i64:64-i128:128-f80:128-n8:16:32:64-S128"
target triple = "x86_64-pc-linux-gnu"

@.str.1 = private unnamed_addr constant [22 x i8] c"testfunc_Ddd(%p, %p)\0A\00", align 1
@.str.2 = private unnamed_addr constant [22 x i8] c"testfunc_Ddd(%g, %g)\0A\00", align 1

; Function Attrs: nounwind uwtable
define x86_fp80 @testfunc_Ddd(double noundef %0, double noundef %1) #0 {
  %3 = alloca double, align 8
  %4 = alloca double, align 8
  %5 = alloca x86_fp80, align 16
  store double %0, ptr %3, align 8, !tbaa !9
  store double %1, ptr %4, align 8, !tbaa !9
  call void @llvm.lifetime.start.p0(i64 16, ptr %5) #12
  %6 = load double, ptr %3, align 8, !tbaa !9
  %7 = load double, ptr %4, align 8, !tbaa !9
  %8 = fmul double %6, %7
  %9 = fpext double %8 to x86_fp80
  store x86_fp80 %9, ptr %5, align 16, !tbaa !46
  %10 = call i32 (ptr, ...) @printf(ptr noundef @.str.1, ptr noundef %3, ptr noundef %4)
  %11 = load double, ptr %3, align 8, !tbaa !9
  %12 = load double, ptr %4, align 8, !tbaa !9
  %13 = call i32 (ptr, ...) @printf(ptr noundef @.str.2, double noundef %11, double noundef %12)
  %14 = load x86_fp80, ptr %5, align 16, !tbaa !46
  call void @llvm.lifetime.end.p0(i64 16, ptr %5) #12
  ret x86_fp80 %14
}