; Function Attrs: nofree nounwind uwtable
define noundef x86_fp80 @testfunc_Ddd(double noundef %0, double noundef %1) local_unnamed_addr #13 {
  %3 = alloca double, align 8
  %4 = alloca double, align 8
  store double %0, ptr %3, align 8, !tbaa !23
  store double %1, ptr %4, align 8, !tbaa !23
  %5 = fmul double %0, %1
  %6 = fpext double %5 to x86_fp80
  %7 = call i32 (ptr, ...) @printf(ptr noundef nonnull dereferenceable(1) @.str.1, ptr noundef nonnull %3, ptr noundef nonnull %4)
  %8 = load double, ptr %3, align 8, !tbaa !23
  %9 = load double, ptr %4, align 8, !tbaa !23
  %10 = call i32 (ptr, ...) @printf(ptr noundef nonnull dereferenceable(1) @.str.2, double noundef %8, double noundef %9)
  ret x86_fp80 %6
}